; ModuleID = '15/917.c'
source_filename = "15/917.c"
target datalayout = "e-m:e-p270:32:32-p271:32:32-p272:64:64-i64:64-f80:128-n8:16:32:64-S128"
target triple = "x86_64-pc-linux-gnu"

@.str = private unnamed_addr constant [3 x i8] c"%d\00", align 1

; Function Attrs: noinline nounwind uwtable
define dso_local i32 @main() #0 {
  %1 = alloca i32, align 4
  %2 = alloca i32, align 4
  %3 = alloca i32, align 4
  %4 = alloca i32, align 4
  %5 = alloca i32, align 4
  %6 = alloca i32, align 4
  %7 = alloca i8*, align 8
  %8 = alloca i64, align 8
  %9 = alloca i64, align 8
  %10 = alloca i32, align 4
  %11 = alloca i32, align 4
  %12 = alloca i32, align 4
  %13 = alloca i32, align 4
  store i32 0, i32* %1, align 4
  %14 = call i32 (i8*, ...) @__isoc99_scanf(i8* getelementptr inbounds ([3 x i8], [3 x i8]* @.str, i64 0, i64 0), i32* %2)
  %15 = load i32, i32* %2, align 4
  %16 = zext i32 %15 to i64
  %17 = load i32, i32* %2, align 4
  %18 = zext i32 %17 to i64
  %19 = call i8* @llvm.stacksave()
  store i8* %19, i8** %7, align 8
  %20 = mul nuw i64 %16, %18
  %21 = alloca i32, i64 %20, align 16
  store i64 %16, i64* %8, align 8
  store i64 %18, i64* %9, align 8
  store i32 0, i32* %12, align 4
  br label %22

22:                                               ; preds = %44, %0
  %23 = load i32, i32* %12, align 4
  %24 = load i32, i32* %2, align 4
  %25 = icmp slt i32 %23, %24
  br i1 %25, label %26, label %47

26:                                               ; preds = %22
  store i32 0, i32* %11, align 4
  br label %27

27:                                               ; preds = %40, %26
  %28 = load i32, i32* %11, align 4
  %29 = load i32, i32* %2, align 4
  %30 = icmp slt i32 %28, %29
  br i1 %30, label %31, label %43

31:                                               ; preds = %27
  %32 = load i32, i32* %12, align 4
  %33 = sext i32 %32 to i64
  %34 = mul nsw i64 %33, %18
  %35 = getelementptr inbounds i32, i32* %21, i64 %34
  %36 = load i32, i32* %11, align 4
  %37 = sext i32 %36 to i64
  %38 = getelementptr inbounds i32, i32* %35, i64 %37
  %39 = call i32 (i8*, ...) @__isoc99_scanf(i8* getelementptr inbounds ([3 x i8], [3 x i8]* @.str, i64 0, i64 0), i32* %38)
  br label %40

40:                                               ; preds = %31
  %41 = load i32, i32* %11, align 4
  %42 = add nsw i32 %41, 1
  store i32 %42, i32* %11, align 4
  br label %27

43:                                               ; preds = %27
  br label %44

44:                                               ; preds = %43
  %45 = load i32, i32* %12, align 4
  %46 = add nsw i32 %45, 1
  store i32 %46, i32* %12, align 4
  br label %22

47:                                               ; preds = %22
  store i32 1, i32* %13, align 4
  store i32 0, i32* %12, align 4
  br label %48

48:                                               ; preds = %95, %47
  %49 = load i32, i32* %12, align 4
  %50 = load i32, i32* %2, align 4
  %51 = icmp slt i32 %49, %50
  br i1 %51, label %52, label %98

52:                                               ; preds = %48
  store i32 0, i32* %11, align 4
  br label %53

53:                                               ; preds = %91, %52
  %54 = load i32, i32* %11, align 4
  %55 = load i32, i32* %2, align 4
  %56 = icmp slt i32 %54, %55
  br i1 %56, label %57, label %94

57:                                               ; preds = %53
  %58 = load i32, i32* %12, align 4
  %59 = sext i32 %58 to i64
  %60 = mul nsw i64 %59, %18
  %61 = getelementptr inbounds i32, i32* %21, i64 %60
  %62 = load i32, i32* %11, align 4
  %63 = sext i32 %62 to i64
  %64 = getelementptr inbounds i32, i32* %61, i64 %63
  %65 = load i32, i32* %64, align 4
  %66 = icmp eq i32 %65, 0
  br i1 %66, label %67, label %75

67:                                               ; preds = %57
  %68 = load i32, i32* %13, align 4
  %69 = icmp eq i32 %68, 1
  br i1 %69, label %70, label %75

70:                                               ; preds = %67
  %71 = load i32, i32* %12, align 4
  %72 = add nsw i32 %71, 1
  store i32 %72, i32* %3, align 4
  %73 = load i32, i32* %11, align 4
  %74 = add nsw i32 %73, 1
  store i32 %74, i32* %4, align 4
  store i32 0, i32* %13, align 4
  br label %75

75:                                               ; preds = %70, %67, %57
  %76 = load i32, i32* %12, align 4
  %77 = sext i32 %76 to i64
  %78 = mul nsw i64 %77, %18
  %79 = getelementptr inbounds i32, i32* %21, i64 %78
  %80 = load i32, i32* %11, align 4
  %81 = sext i32 %80 to i64
  %82 = getelementptr inbounds i32, i32* %79, i64 %81
  %83 = load i32, i32* %82, align 4
  %84 = icmp eq i32 %83, 0
  br i1 %84, label %85, label %90

85:                                               ; preds = %75
  %86 = load i32, i32* %12, align 4
  %87 = sub nsw i32 %86, 1
  store i32 %87, i32* %5, align 4
  %88 = load i32, i32* %11, align 4
  %89 = sub nsw i32 %88, 1
  store i32 %89, i32* %6, align 4
  br label %90

90:                                               ; preds = %85, %75
  br label %91

91:                                               ; preds = %90
  %92 = load i32, i32* %11, align 4
  %93 = add nsw i32 %92, 1
  store i32 %93, i32* %11, align 4
  br label %53

94:                                               ; preds = %53
  br label %95

95:                                               ; preds = %94
  %96 = load i32, i32* %12, align 4
  %97 = add nsw i32 %96, 1
  store i32 %97, i32* %12, align 4
  br label %48

98:                                               ; preds = %48
  %99 = load i32, i32* %5, align 4
  %100 = load i32, i32* %3, align 4
  %101 = sub nsw i32 %99, %100
  %102 = add nsw i32 %101, 1
  %103 = load i32, i32* %6, align 4
  %104 = load i32, i32* %4, align 4
  %105 = sub nsw i32 %103, %104
  %106 = add nsw i32 %105, 1
  %107 = mul nsw i32 %102, %106
  store i32 %107, i32* %10, align 4
  %108 = load i32, i32* %10, align 4
  %109 = call i32 (i8*, ...) @printf(i8* getelementptr inbounds ([3 x i8], [3 x i8]* @.str, i64 0, i64 0), i32 %108)
  %110 = call i32 @getchar()
  %111 = call i32 @getchar()
  store i32 0, i32* %1, align 4
  %112 = load i8*, i8** %7, align 8
  call void @llvm.stackrestore(i8* %112)
  %113 = load i32, i32* %1, align 4
  ret i32 %113
}

declare dso_local i32 @__isoc99_scanf(i8*, ...) #1

; Function Attrs: nounwind
declare i8* @llvm.stacksave() #2

declare dso_local i32 @printf(i8*, ...) #1

declare dso_local i32 @getchar() #1

; Function Attrs: nounwind
declare void @llvm.stackrestore(i8*) #2


!llvm.module.flags = !{!0}
!llvm.ident = !{!1}

!0 = !{i32 1, !"wchar_size", i32 4}
!1 = !{!"clang version 10.0.0-4ubuntu1 "}
